; Function Attrs: mustprogress uwtable
define hidden void @_ZN4cvc58internal4prop10PropEngine26notifyExplainedPropagationENS0_9TrustNodeE(ptr noundef nonnull readonly align 8 captures(none) dereferenceable(416) %0, ptr noundef readonly captures(none) %1) local_unnamed_addr #4 align 2 personality ptr @__gxx_personality_v0 {
  %3 = alloca %"class.cvc5::internal::TrustNode", align 8
  %4 = getelementptr inbounds nuw i8, ptr %0, i64 312
  %5 = load ptr, ptr %4, align 8, !tbaa !289
  %.not = icmp eq ptr %5, null
  br i1 %.not, label %_ZN4cvc58internal9TrustNodeD2Ev.exit, label %6

6:                                                ; preds = %2
  %7 = load i32, ptr %1, align 8, !tbaa !359
  store i32 %7, ptr %3, align 8, !tbaa !359
  %8 = getelementptr inbounds nuw i8, ptr %3, i64 8
  %9 = getelementptr inbounds nuw i8, ptr %1, i64 8
  %10 = load ptr, ptr %9, align 8, !tbaa !294
  store ptr %10, ptr %8, align 8, !tbaa !294
  %11 = load i64, ptr %10, align 8
  %12 = lshr i64 %11, 40
  %13 = trunc nuw nsw i64 %12 to i32
  %14 = and i32 %13, 1048575
  %15 = icmp samesign ult i32 %14, 1048574
  br i1 %15, label %16, label %21, !prof !358

16:                                               ; preds = %6
  %17 = add i64 %11, 1099511627776
  %18 = and i64 %17, 1152920405095219200
  %19 = and i64 %11, -1152920405095219201
  %20 = or disjoint i64 %18, %19
  store i64 %20, ptr %10, align 8
  br label %_ZN4cvc58internal9TrustNodeC2ERKS1_.exit

21:                                               ; preds = %6
  %22 = icmp eq i32 %14, 1048574
  br i1 %22, label %23, label %_ZN4cvc58internal9TrustNodeC2ERKS1_.exit, !prof !297

23:                                               ; preds = %21
  %24 = or i64 %11, 1152920405095219200
  store i64 %24, ptr %10, align 8
  tail call void @_ZN4cvc58internal4expr9NodeValue20markRefCountMaxedOutEv(ptr noundef nonnull align 8 dereferenceable(24) %10)
  br label %_ZN4cvc58internal9TrustNodeC2ERKS1_.exit

_ZN4cvc58internal9TrustNodeC2ERKS1_.exit:         ; preds = %16, %21, %23
  %25 = getelementptr inbounds nuw i8, ptr %3, i64 16
  %26 = getelementptr inbounds nuw i8, ptr %1, i64 16
  %27 = load ptr, ptr %26, align 8, !tbaa !363
  store ptr %27, ptr %25, align 8, !tbaa !363
  invoke void @_ZN4cvc58internal4prop13PropPfManager26notifyExplainedPropagationENS0_9TrustNodeE(ptr noundef nonnull align 8 dereferenceable(1096) %5, ptr noundef nonnull %3)
          to label %28 unwind label %42

28:                                               ; preds = %_ZN4cvc58internal9TrustNodeC2ERKS1_.exit
  %29 = load ptr, ptr %8, align 8, !tbaa !294
  %30 = load i64, ptr %29, align 8
  %31 = and i64 %30, 1152920405095219200
  %.not.i.i.i = icmp eq i64 %31, 1152920405095219200
  br i1 %.not.i.i.i, label %_ZN4cvc58internal9TrustNodeD2Ev.exit, label %32, !prof !297

32:                                               ; preds = %28
  %33 = add i64 %30, 1152920405095219200
  %34 = and i64 %33, 1152920405095219200
  %35 = and i64 %30, -1152920405095219201
  %36 = or disjoint i64 %34, %35
  store i64 %36, ptr %29, align 8
  %37 = icmp eq i64 %34, 0
  br i1 %37, label %38, label %_ZN4cvc58internal9TrustNodeD2Ev.exit, !prof !297

38:                                               ; preds = %32
  invoke void @_ZN4cvc58internal4expr9NodeValue15markForDeletionEv(ptr noundef nonnull align 8 dereferenceable(24) %29)
          to label %_ZN4cvc58internal9TrustNodeD2Ev.exit unwind label %39

39:                                               ; preds = %38
  %40 = landingpad { ptr, i32 }
          catch ptr null
  %41 = extractvalue { ptr, i32 } %40, 0
  call void @__clang_call_terminate(ptr %41) #27
  unreachable

42:                                               ; preds = %_ZN4cvc58internal9TrustNodeC2ERKS1_.exit
  %43 = landingpad { ptr, i32 }
          cleanup
  call void @_ZN4cvc58internal9TrustNodeD2Ev(ptr noundef nonnull align 8 dereferenceable(24) %3) #25
  resume { ptr, i32 } %43

_ZN4cvc58internal9TrustNodeD2Ev.exit:             ; preds = %38, %32, %28, %2
  ret void
}